; Function Attrs: mustprogress uwtable
define noundef double @_ZNK8QuantLib9CdsOption7atmRateEv(ptr nocapture noundef nonnull readonly align 8 dereferenceable(168) %this) local_unnamed_addr #9 align 2 {
entry:
  %swap_ = getelementptr inbounds nuw i8, ptr %this, i64 136
  %0 = load ptr, ptr %swap_, align 8, !tbaa !58
  %cmp.not.i = icmp eq ptr %0, null
  br i1 %cmp.not.i, label %cond.false.i, label %_ZNK5boost10shared_ptrIN8QuantLib17CreditDefaultSwapEEptEv.exit, !prof !71

cond.false.i:                                     ; preds = %entry
  tail call void @_ZN5boost16assertion_failedEPKcS1_S1_l(ptr noundef nonnull @.str.17, ptr noundef nonnull @__PRETTY_FUNCTION__._ZNK5boost10shared_ptrIN8QuantLib17CreditDefaultSwapEEptEv, ptr noundef nonnull @.str.18, i64 noundef 784)
  %.pre.i = load ptr, ptr %swap_, align 8, !tbaa !58
  br label %_ZNK5boost10shared_ptrIN8QuantLib17CreditDefaultSwapEEptEv.exit

_ZNK5boost10shared_ptrIN8QuantLib17CreditDefaultSwapEEptEv.exit: ; preds = %entry, %cond.false.i
  %1 = phi ptr [ %0, %entry ], [ %.pre.i, %cond.false.i ]
  %call2 = tail call noundef double @_ZNK8QuantLib17CreditDefaultSwap10fairSpreadEv(ptr noundef nonnull align 8 dereferenceable(320) %1)
  ret double %call2
}